target datalayout = "e-m:e-p270:32:32-p271:32:32-p272:64:64-i64:64-i128:128-f80:128-n8:16:32:64-S128"
target triple = "x86_64-pc-linux-gnu"

%struct._packet_info = type { ptr, ptr, i32, i32, %struct.nstime_t, %struct.nstime_t, %struct.nstime_t, i8, ptr, ptr, ptr, ptr, %struct._address, %struct._address, %struct._address, %struct._address, %struct._address, %struct._address, i32, ptr, i8, [3 x i8], %struct.anon, i32, i32, i32, i32, ptr, i8, ptr, ptr, i16, i16, i32, i32, i16, i32, i32, ptr, ptr, ptr, i8, i8, i16, i16, i16, i32, i16, i16, ptr, ptr, ptr, ptr, ptr, i32, i32 }
%struct.nstime_t = type { i64, i32 }
%struct._address = type { i32, i32, ptr, ptr }
%struct.anon = type { i8, [3 x i8] }

@hf_bt_dht_node = internal global i32 0, align 4
@hf_bt_dht_nodes = internal global i32 0, align 4
@hf_bt_dht_id = internal global i32 0, align 4
@hf_ip = internal global i32 0, align 4
@hf_ip6 = internal global i32 0, align 4
@hf_port = internal global i32 0, align 4
@hf_truncated_data = internal global i32 0, align 4
@ett_bt_dht_peers = internal global i32 0, align 4
@ett_bt_dht_nodes = internal global i32 0, align 4
@.str.79 = private unnamed_addr constant [4 x i8] c" %d\00", align 1
@.str.81 = private unnamed_addr constant [5 x i8] c":%u)\00", align 1
@.str.90 = private unnamed_addr constant [9 x i8] c" (id: %s\00", align 1
@.str.91 = private unnamed_addr constant [18 x i8] c", IPv6/Port: [%s]\00", align 1
@.str.92 = private unnamed_addr constant [16 x i8] c", IPv4/Port: %s\00", align 1
@.str.93 = private unnamed_addr constant [13 x i8] c"%s: %d nodes\00", align 1
@.str.94 = private unnamed_addr constant [10 x i8] c" Nodes=%d\00", align 1
@.str.95 = private unnamed_addr constant [3 x i8] c"%d\00", align 1

; Function Attrs: inlinehint null_pointer_is_valid sspstrong uwtable
define internal zeroext i1 @bencoded_string_length(ptr noundef %0, ptr noundef %1, ptr noundef %2, ptr noundef %3) #4 {
  %5 = alloca i1, align 1
  %6 = alloca ptr, align 8
  %7 = alloca ptr, align 8
  %8 = alloca ptr, align 8
  %9 = alloca ptr, align 8
  %10 = alloca i32, align 4
  %11 = alloca i32, align 4
  %12 = alloca i32, align 4
  %13 = alloca i32, align 4
  store ptr %0, ptr %6, align 8
  store ptr %1, ptr %7, align 8
  store ptr %2, ptr %8, align 8
  store ptr %3, ptr %9, align 8
  call void @llvm.lifetime.start.p0(i64 4, ptr %10) #6
  call void @llvm.lifetime.start.p0(i64 4, ptr %11) #6
  call void @llvm.lifetime.start.p0(i64 4, ptr %12) #6
  %14 = load ptr, ptr %7, align 8
  %15 = load ptr, ptr %8, align 8
  %16 = load i32, ptr %15, align 4
  %17 = call i32 @tvb_captured_length_remaining(ptr noundef %14, i32 noundef %16)
  store i32 %17, ptr %12, align 4
  %18 = load i32, ptr %12, align 4
  %19 = icmp eq i32 %18, 0
  br i1 %19, label %20, label %21

20:                                               ; preds = %4
  store i1 false, ptr %5, align 1
  store i32 1, ptr %13, align 4
  br label %61

21:                                               ; preds = %4
  %22 = load ptr, ptr %8, align 8
  %23 = load i32, ptr %22, align 4
  store i32 %23, ptr %10, align 4
  %24 = load i32, ptr %10, align 4
  store i32 %24, ptr %11, align 4
  br label %25

25:                                               ; preds = %37, %21
  %26 = load ptr, ptr %7, align 8
  %27 = load i32, ptr %10, align 4
  %28 = call zeroext i8 @tvb_get_uint8(ptr noundef %26, i32 noundef %27)
  %29 = zext i8 %28 to i32
  %30 = icmp ne i32 %29, 58
  br i1 %30, label %31, label %35

31:                                               ; preds = %25
  %32 = load i32, ptr %12, align 4
  %33 = add i32 %32, -1
  store i32 %33, ptr %12, align 4
  %34 = icmp ne i32 %33, 0
  br label %35

35:                                               ; preds = %31, %25
  %36 = phi i1 [ false, %25 ], [ %34, %31 ]
  br i1 %36, label %37, label %40

37:                                               ; preds = %35
  %38 = load i32, ptr %10, align 4
  %39 = add i32 %38, 1
  store i32 %39, ptr %10, align 4
  br label %25, !llvm.loop !14

40:                                               ; preds = %35
  %41 = load i32, ptr %12, align 4
  %42 = icmp ne i32 %41, 0
  br i1 %42, label %43, label %60

43:                                               ; preds = %40
  %44 = load ptr, ptr %6, align 8
  %45 = getelementptr inbounds nuw %struct._packet_info, ptr %44, i32 0, i32 51
  %46 = load ptr, ptr %45, align 8
  %47 = load ptr, ptr %7, align 8
  %48 = load i32, ptr %11, align 4
  %49 = load i32, ptr %10, align 4
  %50 = load i32, ptr %11, align 4
  %51 = sub i32 %49, %50
  %52 = call ptr @tvb_get_string_enc(ptr noundef %46, ptr noundef %47, i32 noundef %48, i32 noundef %51, i32 noundef 0)
  %53 = load ptr, ptr %9, align 8
  %54 = call zeroext i1 @ws_strtou32(ptr noundef %52, ptr noundef null, ptr noundef %53)
  br i1 %54, label %55, label %60

55:                                               ; preds = %43
  %56 = load i32, ptr %10, align 4
  %57 = add i32 %56, 1
  store i32 %57, ptr %10, align 4
  %58 = load i32, ptr %10, align 4
  %59 = load ptr, ptr %8, align 8
  store i32 %58, ptr %59, align 4
  store i1 true, ptr %5, align 1
  store i32 1, ptr %13, align 4
  br label %61

60:                                               ; preds = %43, %40
  store i1 false, ptr %5, align 1
  store i32 1, ptr %13, align 4
  br label %61

61:                                               ; preds = %60, %55, %20
  call void @llvm.lifetime.end.p0(i64 4, ptr %12) #6
  call void @llvm.lifetime.end.p0(i64 4, ptr %11) #6
  call void @llvm.lifetime.end.p0(i64 4, ptr %10) #6
  %62 = load i1, ptr %5, align 1
  ret i1 %62
}

; Function Attrs: null_pointer_is_valid sspstrong uwtable
define internal i32 @dissect_bt_dht_nodes(ptr noundef %0, ptr noundef %1, ptr noundef %2, i32 noundef %3, ptr noundef %4, ptr noundef %5, i1 noundef zeroext %6) #0 {
  %8 = alloca i32, align 4
  %9 = alloca ptr, align 8
  %10 = alloca ptr, align 8
  %11 = alloca ptr, align 8
  %12 = alloca i32, align 4
  %13 = alloca ptr, align 8
  %14 = alloca ptr, align 8
  %15 = alloca i8, align 1
  %16 = alloca ptr, align 8
  %17 = alloca ptr, align 8
  %18 = alloca ptr, align 8
  %19 = alloca ptr, align 8
  %20 = alloca i32, align 4
  %21 = alloca i32, align 4
  %22 = alloca i32, align 4
  %23 = alloca i32, align 4
  store ptr %0, ptr %9, align 8
  store ptr %1, ptr %10, align 8
  store ptr %2, ptr %11, align 8
  store i32 %3, ptr %12, align 4
  store ptr %4, ptr %13, align 8
  store ptr %5, ptr %14, align 8
  %24 = zext i1 %6 to i8
  store i8 %24, ptr %15, align 1
  call void @llvm.lifetime.start.p0(i64 8, ptr %16) #6
  call void @llvm.lifetime.start.p0(i64 8, ptr %17) #6
  call void @llvm.lifetime.start.p0(i64 8, ptr %18) #6
  call void @llvm.lifetime.start.p0(i64 8, ptr %19) #6
  call void @llvm.lifetime.start.p0(i64 4, ptr %20) #6
  call void @llvm.lifetime.start.p0(i64 4, ptr %21) #6
  call void @llvm.lifetime.start.p0(i64 4, ptr %22) #6
  %25 = load ptr, ptr %10, align 8
  %26 = load ptr, ptr %9, align 8
  %27 = call zeroext i1 @bencoded_string_length(ptr noundef %25, ptr noundef %26, ptr noundef %12, ptr noundef %21)
  br i1 %27, label %29, label %28

28:                                               ; preds = %7
  store i32 0, ptr %8, align 4
  store i32 1, ptr %23, align 4
  br label %165

29:                                               ; preds = %7
  %30 = load ptr, ptr %11, align 8
  %31 = load i32, ptr @hf_bt_dht_nodes, align 4
  %32 = load ptr, ptr %9, align 8
  %33 = load i32, ptr %12, align 4
  %34 = load i32, ptr %21, align 4
  %35 = call ptr @proto_tree_add_item(ptr noundef %30, i32 noundef %31, ptr noundef %32, i32 noundef %33, i32 noundef %34, i32 noundef 0)
  store ptr %35, ptr %16, align 8
  %36 = load ptr, ptr %16, align 8
  %37 = load i32, ptr @ett_bt_dht_nodes, align 4
  %38 = call ptr @proto_item_add_subtree(ptr noundef %36, i32 noundef %37)
  store ptr %38, ptr %17, align 8
  store i32 0, ptr %20, align 4
  store i32 26, ptr %22, align 4
  %39 = load i8, ptr %15, align 1, !range !8, !noundef !9
  %40 = trunc i8 %39 to i1
  br i1 %40, label %41, label %42

41:                                               ; preds = %29
  store i32 38, ptr %22, align 4
  br label %42

42:                                               ; preds = %41, %29
  br label %43

43:                                               ; preds = %130, %42
  %44 = load i32, ptr %21, align 4
  %45 = load i32, ptr %22, align 4
  %46 = icmp uge i32 %44, %45
  br i1 %46, label %47, label %137

47:                                               ; preds = %43
  %48 = load i32, ptr %20, align 4
  %49 = add i32 %48, 1
  store i32 %49, ptr %20, align 4
  %50 = load ptr, ptr %17, align 8
  %51 = load i32, ptr @hf_bt_dht_node, align 4
  %52 = load ptr, ptr %9, align 8
  %53 = load i32, ptr %12, align 4
  %54 = load i32, ptr %22, align 4
  %55 = call ptr @proto_tree_add_item(ptr noundef %50, i32 noundef %51, ptr noundef %52, i32 noundef %53, i32 noundef %54, i32 noundef 0)
  store ptr %55, ptr %18, align 8
  %56 = load ptr, ptr %18, align 8
  %57 = load i32, ptr %20, align 4
  call void (ptr, ptr, ...) @proto_item_append_text(ptr noundef %56, ptr noundef @.str.79, i32 noundef %57)
  %58 = load ptr, ptr %18, align 8
  %59 = load i32, ptr @ett_bt_dht_peers, align 4
  %60 = call ptr @proto_item_add_subtree(ptr noundef %58, i32 noundef %59)
  store ptr %60, ptr %19, align 8
  %61 = load ptr, ptr %19, align 8
  %62 = load i32, ptr @hf_bt_dht_id, align 4
  %63 = load ptr, ptr %9, align 8
  %64 = load i32, ptr %12, align 4
  %65 = call ptr @proto_tree_add_item(ptr noundef %61, i32 noundef %62, ptr noundef %63, i32 noundef %64, i32 noundef 20, i32 noundef 0)
  %66 = load ptr, ptr %18, align 8
  %67 = load ptr, ptr %10, align 8
  %68 = getelementptr inbounds nuw %struct._packet_info, ptr %67, i32 0, i32 51
  %69 = load ptr, ptr %68, align 8
  %70 = load ptr, ptr %9, align 8
  %71 = load i32, ptr %12, align 4
  %72 = call ptr @tvb_bytes_to_str(ptr noundef %69, ptr noundef %70, i32 noundef %71, i32 noundef 20)
  call void (ptr, ptr, ...) @proto_item_append_text(ptr noundef %66, ptr noundef @.str.90, ptr noundef %72)
  %73 = load i8, ptr %15, align 1, !range !8, !noundef !9
  %74 = trunc i8 %73 to i1
  br i1 %74, label %75, label %102

75:                                               ; preds = %47
  %76 = load ptr, ptr %19, align 8
  %77 = load i32, ptr @hf_ip6, align 4
  %78 = load ptr, ptr %9, align 8
  %79 = load i32, ptr %12, align 4
  %80 = add i32 %79, 20
  %81 = call ptr @proto_tree_add_item(ptr noundef %76, i32 noundef %77, ptr noundef %78, i32 noundef %80, i32 noundef 16, i32 noundef 0)
  %82 = load ptr, ptr %18, align 8
  %83 = load ptr, ptr %10, align 8
  %84 = getelementptr inbounds nuw %struct._packet_info, ptr %83, i32 0, i32 51
  %85 = load ptr, ptr %84, align 8
  %86 = load ptr, ptr %9, align 8
  %87 = load i32, ptr %12, align 4
  %88 = add i32 %87, 20
  %89 = call ptr @tvb_address_to_str(ptr noundef %85, ptr noundef %86, i32 noundef 3, i32 noundef %88)
  call void (ptr, ptr, ...) @proto_item_append_text(ptr noundef %82, ptr noundef @.str.91, ptr noundef %89)
  %90 = load ptr, ptr %19, align 8
  %91 = load i32, ptr @hf_port, align 4
  %92 = load ptr, ptr %9, align 8
  %93 = load i32, ptr %12, align 4
  %94 = add i32 %93, 36
  %95 = call ptr @proto_tree_add_item(ptr noundef %90, i32 noundef %91, ptr noundef %92, i32 noundef %94, i32 noundef 2, i32 noundef 0)
  %96 = load ptr, ptr %18, align 8
  %97 = load ptr, ptr %9, align 8
  %98 = load i32, ptr %12, align 4
  %99 = add i32 %98, 36
  %100 = call zeroext i16 @tvb_get_ntohs(ptr noundef %97, i32 noundef %99)
  %101 = zext i16 %100 to i32
  call void (ptr, ptr, ...) @proto_item_append_text(ptr noundef %96, ptr noundef @.str.81, i32 noundef %101)
  br label %129

102:                                              ; preds = %47
  %103 = load ptr, ptr %19, align 8
  %104 = load i32, ptr @hf_ip, align 4
  %105 = load ptr, ptr %9, align 8
  %106 = load i32, ptr %12, align 4
  %107 = add i32 %106, 20
  %108 = call ptr @proto_tree_add_item(ptr noundef %103, i32 noundef %104, ptr noundef %105, i32 noundef %107, i32 noundef 4, i32 noundef 0)
  %109 = load ptr, ptr %18, align 8
  %110 = load ptr, ptr %10, align 8
  %111 = getelementptr inbounds nuw %struct._packet_info, ptr %110, i32 0, i32 51
  %112 = load ptr, ptr %111, align 8
  %113 = load ptr, ptr %9, align 8
  %114 = load i32, ptr %12, align 4
  %115 = add i32 %114, 20
  %116 = call ptr @tvb_address_to_str(ptr noundef %112, ptr noundef %113, i32 noundef 2, i32 noundef %115)
  call void (ptr, ptr, ...) @proto_item_append_text(ptr noundef %109, ptr noundef @.str.92, ptr noundef %116)
  %117 = load ptr, ptr %19, align 8
  %118 = load i32, ptr @hf_port, align 4
  %119 = load ptr, ptr %9, align 8
  %120 = load i32, ptr %12, align 4
  %121 = add i32 %120, 24
  %122 = call ptr @proto_tree_add_item(ptr noundef %117, i32 noundef %118, ptr noundef %119, i32 noundef %121, i32 noundef 2, i32 noundef 0)
  %123 = load ptr, ptr %18, align 8
  %124 = load ptr, ptr %9, align 8
  %125 = load i32, ptr %12, align 4
  %126 = add i32 %125, 24
  %127 = call zeroext i16 @tvb_get_ntohs(ptr noundef %124, i32 noundef %126)
  %128 = zext i16 %127 to i32
  call void (ptr, ptr, ...) @proto_item_append_text(ptr noundef %123, ptr noundef @.str.81, i32 noundef %128)
  br label %129

129:                                              ; preds = %102, %75
  br label %130

130:                                              ; preds = %129
  %131 = load i32, ptr %22, align 4
  %132 = load i32, ptr %21, align 4
  %133 = sub i32 %132, %131
  store i32 %133, ptr %21, align 4
  %134 = load i32, ptr %22, align 4
  %135 = load i32, ptr %12, align 4
  %136 = add i32 %135, %134
  store i32 %136, ptr %12, align 4
  br label %43, !llvm.loop !13

137:                                              ; preds = %43
  %138 = load i32, ptr %21, align 4
  %139 = icmp ugt i32 %138, 0
  br i1 %139, label %140, label %150

140:                                              ; preds = %137
  %141 = load ptr, ptr %11, align 8
  %142 = load i32, ptr @hf_truncated_data, align 4
  %143 = load ptr, ptr %9, align 8
  %144 = load i32, ptr %12, align 4
  %145 = load i32, ptr %21, align 4
  %146 = call ptr @proto_tree_add_item(ptr noundef %141, i32 noundef %142, ptr noundef %143, i32 noundef %144, i32 noundef %145, i32 noundef 0)
  %147 = load i32, ptr %21, align 4
  %148 = load i32, ptr %12, align 4
  %149 = add i32 %148, %147
  store i32 %149, ptr %12, align 4
  br label %150

150:                                              ; preds = %140, %137
  %151 = load ptr, ptr %16, align 8
  %152 = load ptr, ptr %14, align 8
  %153 = load i32, ptr %20, align 4
  call void (ptr, ptr, ...) @proto_item_set_text(ptr noundef %151, ptr noundef @.str.93, ptr noundef %152, i32 noundef %153)
  %154 = load ptr, ptr %10, align 8
  %155 = getelementptr inbounds nuw %struct._packet_info, ptr %154, i32 0, i32 1
  %156 = load ptr, ptr %155, align 8
  %157 = load i32, ptr %20, align 4
  call void (ptr, i32, ptr, ...) @col_append_fstr(ptr noundef %156, i32 noundef 25, ptr noundef @.str.94, i32 noundef %157)
  %158 = load ptr, ptr %10, align 8
  %159 = getelementptr inbounds nuw %struct._packet_info, ptr %158, i32 0, i32 51
  %160 = load ptr, ptr %159, align 8
  %161 = load i32, ptr %20, align 4
  %162 = call noalias ptr (ptr, ptr, ...) @wmem_strdup_printf(ptr noundef %160, ptr noundef @.str.95, i32 noundef %161)
  %163 = load ptr, ptr %13, align 8
  store ptr %162, ptr %163, align 8
  %164 = load i32, ptr %12, align 4
  store i32 %164, ptr %8, align 4
  store i32 1, ptr %23, align 4
  br label %165

165:                                              ; preds = %150, %28
  call void @llvm.lifetime.end.p0(i64 4, ptr %22) #6
  call void @llvm.lifetime.end.p0(i64 4, ptr %21) #6
  call void @llvm.lifetime.end.p0(i64 4, ptr %20) #6
  call void @llvm.lifetime.end.p0(i64 8, ptr %19) #6
  call void @llvm.lifetime.end.p0(i64 8, ptr %18) #6
  call void @llvm.lifetime.end.p0(i64 8, ptr %17) #6
  call void @llvm.lifetime.end.p0(i64 8, ptr %16) #6
  %166 = load i32, ptr %8, align 4
  ret i32 %166
}