; Function Attrs: null_pointer_is_valid sspstrong uwtable
define internal fastcc i32 @dissect_bt_dht_nodes(ptr noundef %0, ptr noundef readonly captures(none) %1, ptr noundef %2, i32 noundef %3, ptr noundef writeonly captures(none) %4, i1 noundef zeroext %5) unnamed_addr #0 {
  %7 = alloca i32, align 4
  call void @llvm.lifetime.start.p0(i64 4, ptr nonnull %7) #5
  %8 = tail call i32 @tvb_captured_length_remaining(ptr noundef %0, i32 noundef %3)
  %9 = icmp eq i32 %8, 0
  br i1 %9, label %bencoded_string_length.exit.thread, label %10

10:                                               ; preds = %6
  %11 = tail call zeroext i8 @tvb_get_uint8(ptr noundef %0, i32 noundef %3)
  %.not.not28.i = icmp eq i8 %11, 58
  br i1 %.not.not28.i, label %.critedge26.i, label %.lr.ph.i

.lr.ph.i:                                         ; preds = %10, %13
  %.030.i = phi i32 [ %12, %13 ], [ %8, %10 ]
  %.02029.i = phi i32 [ %14, %13 ], [ %3, %10 ]
  %12 = add i32 %.030.i, -1
  %.not24.i = icmp eq i32 %12, 0
  br i1 %.not24.i, label %bencoded_string_length.exit.thread, label %13

13:                                               ; preds = %.lr.ph.i
  %14 = add i32 %.02029.i, 1
  %15 = tail call zeroext i8 @tvb_get_uint8(ptr noundef %0, i32 noundef %14)
  %.not.not.i = icmp eq i8 %15, 58
  br i1 %.not.not.i, label %.critedge26.i, label %.lr.ph.i, !llvm.loop !6

.critedge26.i:                                    ; preds = %13, %10
  %.020.lcssa.i = phi i32 [ %3, %10 ], [ %14, %13 ]
  %16 = getelementptr inbounds nuw i8, ptr %1, i64 408
  %17 = load ptr, ptr %16, align 8
  %18 = sub i32 %.020.lcssa.i, %3
  %19 = tail call ptr @tvb_get_string_enc(ptr noundef %17, ptr noundef %0, i32 noundef %3, i32 noundef %18, i32 noundef 0)
  %20 = call zeroext i1 @ws_strtou32(ptr noundef %19, ptr noundef null, ptr noundef nonnull %7)
  br i1 %20, label %21, label %bencoded_string_length.exit.thread

21:                                               ; preds = %.critedge26.i
  %22 = add i32 %.020.lcssa.i, 1
  %23 = load i32, ptr @hf_bt_dht_nodes, align 4
  %24 = load i32, ptr %7, align 4
  %25 = call ptr @proto_tree_add_item(ptr noundef %2, i32 noundef %23, ptr noundef %0, i32 noundef %22, i32 noundef %24, i32 noundef 0)
  %26 = load i32, ptr @ett_bt_dht_nodes, align 4
  %27 = call ptr @proto_item_add_subtree(ptr noundef %25, i32 noundef %26)
  %spec.store.select = select i1 %5, i32 38, i32 26
  %.pr = load i32, ptr %7, align 4
  %.not22 = icmp ult i32 %.pr, %spec.store.select
  br i1 %.not22, label %._crit_edge, label %.lr.ph

.lr.ph:                                           ; preds = %21
  br i1 %5, label %.lr.ph.split.us, label %.lr.ph.split

.lr.ph.split.us:                                  ; preds = %.lr.ph, %.lr.ph.split.us
  %.024.us = phi i32 [ %28, %.lr.ph.split.us ], [ 0, %.lr.ph ]
  %.123.us = phi i32 [ %49, %.lr.ph.split.us ], [ %22, %.lr.ph ]
  %28 = add i32 %.024.us, 1
  %29 = load i32, ptr @hf_bt_dht_node, align 4
  %30 = call ptr @proto_tree_add_item(ptr noundef %27, i32 noundef %29, ptr noundef %0, i32 noundef %.123.us, i32 noundef %spec.store.select, i32 noundef 0)
  call void (ptr, ptr, ...) @proto_item_append_text(ptr noundef %30, ptr noundef nonnull @.str.79, i32 noundef %28)
  %31 = load i32, ptr @ett_bt_dht_peers, align 4
  %32 = call ptr @proto_item_add_subtree(ptr noundef %30, i32 noundef %31)
  %33 = load i32, ptr @hf_bt_dht_id, align 4
  %34 = call ptr @proto_tree_add_item(ptr noundef %32, i32 noundef %33, ptr noundef %0, i32 noundef %.123.us, i32 noundef 20, i32 noundef 0)
  %35 = load ptr, ptr %16, align 8
  %36 = call ptr @tvb_bytes_to_str(ptr noundef %35, ptr noundef %0, i32 noundef %.123.us, i32 noundef 20)
  call void (ptr, ptr, ...) @proto_item_append_text(ptr noundef %30, ptr noundef nonnull @.str.90, ptr noundef %36)
  %37 = load i32, ptr @hf_ip6, align 4
  %38 = add i32 %.123.us, 20
  %39 = call ptr @proto_tree_add_item(ptr noundef %32, i32 noundef %37, ptr noundef %0, i32 noundef %38, i32 noundef 16, i32 noundef 0)
  %40 = load ptr, ptr %16, align 8
  %41 = call ptr @tvb_address_to_str(ptr noundef %40, ptr noundef %0, i32 noundef 3, i32 noundef %38)
  call void (ptr, ptr, ...) @proto_item_append_text(ptr noundef %30, ptr noundef nonnull @.str.91, ptr noundef %41)
  %42 = load i32, ptr @hf_port, align 4
  %43 = add i32 %.123.us, 36
  %44 = call ptr @proto_tree_add_item(ptr noundef %32, i32 noundef %42, ptr noundef %0, i32 noundef %43, i32 noundef 2, i32 noundef 0)
  %45 = call zeroext i16 @tvb_get_ntohs(ptr noundef %0, i32 noundef %43)
  %46 = zext i16 %45 to i32
  call void (ptr, ptr, ...) @proto_item_append_text(ptr noundef %30, ptr noundef nonnull @.str.81, i32 noundef %46)
  %47 = load i32, ptr %7, align 4
  %48 = sub i32 %47, %spec.store.select
  store i32 %48, ptr %7, align 4
  %49 = add i32 %.123.us, %spec.store.select
  %.not.us = icmp ult i32 %48, %spec.store.select
  br i1 %.not.us, label %._crit_edge, label %.lr.ph.split.us, !llvm.loop !12

.lr.ph.split:                                     ; preds = %.lr.ph, %.lr.ph.split
  %.024 = phi i32 [ %50, %.lr.ph.split ], [ 0, %.lr.ph ]
  %.123 = phi i32 [ %71, %.lr.ph.split ], [ %22, %.lr.ph ]
  %50 = add i32 %.024, 1
  %51 = load i32, ptr @hf_bt_dht_node, align 4
  %52 = call ptr @proto_tree_add_item(ptr noundef %27, i32 noundef %51, ptr noundef %0, i32 noundef %.123, i32 noundef %spec.store.select, i32 noundef 0)
  call void (ptr, ptr, ...) @proto_item_append_text(ptr noundef %52, ptr noundef nonnull @.str.79, i32 noundef %50)
  %53 = load i32, ptr @ett_bt_dht_peers, align 4
  %54 = call ptr @proto_item_add_subtree(ptr noundef %52, i32 noundef %53)
  %55 = load i32, ptr @hf_bt_dht_id, align 4
  %56 = call ptr @proto_tree_add_item(ptr noundef %54, i32 noundef %55, ptr noundef %0, i32 noundef %.123, i32 noundef 20, i32 noundef 0)
  %57 = load ptr, ptr %16, align 8
  %58 = call ptr @tvb_bytes_to_str(ptr noundef %57, ptr noundef %0, i32 noundef %.123, i32 noundef 20)
  call void (ptr, ptr, ...) @proto_item_append_text(ptr noundef %52, ptr noundef nonnull @.str.90, ptr noundef %58)
  %59 = load i32, ptr @hf_ip, align 4
  %60 = add i32 %.123, 20
  %61 = call ptr @proto_tree_add_item(ptr noundef %54, i32 noundef %59, ptr noundef %0, i32 noundef %60, i32 noundef 4, i32 noundef 0)
  %62 = load ptr, ptr %16, align 8
  %63 = call ptr @tvb_address_to_str(ptr noundef %62, ptr noundef %0, i32 noundef 2, i32 noundef %60)
  call void (ptr, ptr, ...) @proto_item_append_text(ptr noundef %52, ptr noundef nonnull @.str.92, ptr noundef %63)
  %64 = load i32, ptr @hf_port, align 4
  %65 = add i32 %.123, 24
  %66 = call ptr @proto_tree_add_item(ptr noundef %54, i32 noundef %64, ptr noundef %0, i32 noundef %65, i32 noundef 2, i32 noundef 0)
  %67 = call zeroext i16 @tvb_get_ntohs(ptr noundef %0, i32 noundef %65)
  %68 = zext i16 %67 to i32
  call void (ptr, ptr, ...) @proto_item_append_text(ptr noundef %52, ptr noundef nonnull @.str.81, i32 noundef %68)
  %69 = load i32, ptr %7, align 4
  %70 = sub i32 %69, %spec.store.select
  store i32 %70, ptr %7, align 4
  %71 = add i32 %.123, %spec.store.select
  %.not = icmp ult i32 %70, %spec.store.select
  br i1 %.not, label %._crit_edge, label %.lr.ph.split, !llvm.loop !12

._crit_edge:                                      ; preds = %.lr.ph.split, %.lr.ph.split.us, %21
  %.lcssa = phi i32 [ %.pr, %21 ], [ %48, %.lr.ph.split.us ], [ %70, %.lr.ph.split ]
  %.1.lcssa = phi i32 [ %22, %21 ], [ %49, %.lr.ph.split.us ], [ %71, %.lr.ph.split ]
  %.0.lcssa = phi i32 [ 0, %21 ], [ %28, %.lr.ph.split.us ], [ %50, %.lr.ph.split ]
  %.not52 = icmp eq i32 %.lcssa, 0
  br i1 %.not52, label %77, label %72

72:                                               ; preds = %._crit_edge
  %73 = load i32, ptr @hf_truncated_data, align 4
  %74 = call ptr @proto_tree_add_item(ptr noundef %2, i32 noundef %73, ptr noundef %0, i32 noundef %.1.lcssa, i32 noundef %.lcssa, i32 noundef 0)
  %75 = load i32, ptr %7, align 4
  %76 = add i32 %75, %.1.lcssa
  br label %77

77:                                               ; preds = %72, %._crit_edge
  %.2 = phi i32 [ %.1.lcssa, %._crit_edge ], [ %76, %72 ]
  call void (ptr, ptr, ...) @proto_item_set_text(ptr noundef %25, ptr noundef nonnull @.str.93, ptr noundef nonnull @.str.54, i32 noundef %.0.lcssa)
  %78 = getelementptr inbounds nuw i8, ptr %1, i64 8
  %79 = load ptr, ptr %78, align 8
  call void (ptr, i32, ptr, ...) @col_append_fstr(ptr noundef %79, i32 noundef 25, ptr noundef nonnull @.str.94, i32 noundef %.0.lcssa)
  %80 = load ptr, ptr %16, align 8
  %81 = call noalias ptr (ptr, ptr, ...) @wmem_strdup_printf(ptr noundef %80, ptr noundef nonnull @.str.95, i32 noundef %.0.lcssa)
  store ptr %81, ptr %4, align 8
  br label %bencoded_string_length.exit.thread

bencoded_string_length.exit.thread:               ; preds = %.lr.ph.i, %.critedge26.i, %6, %77
  %.050 = phi i32 [ %.2, %77 ], [ 0, %6 ], [ 0, %.critedge26.i ], [ 0, %.lr.ph.i ]
  call void @llvm.lifetime.end.p0(i64 4, ptr nonnull %7) #5
  ret i32 %.050
}